; ModuleID = '29/1484.c'
source_filename = "29/1484.c"
target datalayout = "e-m:e-p270:32:32-p271:32:32-p272:64:64-i64:64-f80:128-n8:16:32:64-S128"
target triple = "x86_64-pc-linux-gnu"

@.str = private unnamed_addr constant [3 x i8] c"%d\00", align 1
@.str.1 = private unnamed_addr constant [6 x i8] c"%.3f\0A\00", align 1

; Function Attrs: noinline nounwind uwtable
define dso_local i32 @main() #0 {
  %1 = alloca i32, align 4
  %2 = alloca [1000 x float], align 16
  %3 = alloca i32, align 4
  %4 = alloca [1002 x i32], align 16
  %5 = alloca i32, align 4
  %6 = alloca i32, align 4
  %7 = alloca i32, align 4
  %8 = alloca i32, align 4
  store i32 0, i32* %1, align 4
  store i32 1, i32* %3, align 4
  %9 = getelementptr inbounds [1000 x float], [1000 x float]* %2, i64 0, i64 0
  store float 0.000000e+00, float* %9, align 16
  store i32 3, i32* %5, align 4
  %10 = getelementptr inbounds [1002 x i32], [1002 x i32]* %4, i64 0, i64 1
  store i32 1, i32* %10, align 4
  %11 = getelementptr inbounds [1002 x i32], [1002 x i32]* %4, i64 0, i64 2
  store i32 2, i32* %11, align 8
  br label %12

12:                                               ; preds = %15, %0
  %13 = load i32, i32* %5, align 4
  %14 = icmp slt i32 %13, 1001
  br i1 %14, label %15, label %32

15:                                               ; preds = %12
  %16 = load i32, i32* %5, align 4
  %17 = sub nsw i32 %16, 1
  %18 = sext i32 %17 to i64
  %19 = getelementptr inbounds [1002 x i32], [1002 x i32]* %4, i64 0, i64 %18
  %20 = load i32, i32* %19, align 4
  %21 = load i32, i32* %5, align 4
  %22 = sub nsw i32 %21, 2
  %23 = sext i32 %22 to i64
  %24 = getelementptr inbounds [1002 x i32], [1002 x i32]* %4, i64 0, i64 %23
  %25 = load i32, i32* %24, align 4
  %26 = add nsw i32 %20, %25
  %27 = load i32, i32* %5, align 4
  %28 = sext i32 %27 to i64
  %29 = getelementptr inbounds [1002 x i32], [1002 x i32]* %4, i64 0, i64 %28
  store i32 %26, i32* %29, align 4
  %30 = load i32, i32* %5, align 4
  %31 = add nsw i32 %30, 1
  store i32 %31, i32* %5, align 4
  br label %12

32:                                               ; preds = %12
  br label %33

33:                                               ; preds = %36, %32
  %34 = load i32, i32* %3, align 4
  %35 = icmp slt i32 %34, 1000
  br i1 %35, label %36, label %60

36:                                               ; preds = %33
  %37 = load i32, i32* %3, align 4
  %38 = sub nsw i32 %37, 1
  %39 = sext i32 %38 to i64
  %40 = getelementptr inbounds [1000 x float], [1000 x float]* %2, i64 0, i64 %39
  %41 = load float, float* %40, align 4
  %42 = load i32, i32* %3, align 4
  %43 = add nsw i32 %42, 1
  %44 = sext i32 %43 to i64
  %45 = getelementptr inbounds [1002 x i32], [1002 x i32]* %4, i64 0, i64 %44
  %46 = load i32, i32* %45, align 4
  %47 = sitofp i32 %46 to float
  %48 = load i32, i32* %3, align 4
  %49 = sext i32 %48 to i64
  %50 = getelementptr inbounds [1002 x i32], [1002 x i32]* %4, i64 0, i64 %49
  %51 = load i32, i32* %50, align 4
  %52 = sitofp i32 %51 to float
  %53 = fdiv float %47, %52
  %54 = fadd float %41, %53
  %55 = load i32, i32* %3, align 4
  %56 = sext i32 %55 to i64
  %57 = getelementptr inbounds [1000 x float], [1000 x float]* %2, i64 0, i64 %56
  store float %54, float* %57, align 4
  %58 = load i32, i32* %3, align 4
  %59 = add nsw i32 %58, 1
  store i32 %59, i32* %3, align 4
  br label %33

60:                                               ; preds = %33
  %61 = call i32 (i8*, ...) @__isoc99_scanf(i8* getelementptr inbounds ([3 x i8], [3 x i8]* @.str, i64 0, i64 0), i32* %6)
  store i32 1, i32* %7, align 4
  br label %62

62:                                               ; preds = %66, %60
  %63 = load i32, i32* %7, align 4
  %64 = load i32, i32* %6, align 4
  %65 = icmp sle i32 %63, %64
  br i1 %65, label %66, label %76

66:                                               ; preds = %62
  %67 = call i32 (i8*, ...) @__isoc99_scanf(i8* getelementptr inbounds ([3 x i8], [3 x i8]* @.str, i64 0, i64 0), i32* %8)
  %68 = load i32, i32* %8, align 4
  %69 = sext i32 %68 to i64
  %70 = getelementptr inbounds [1000 x float], [1000 x float]* %2, i64 0, i64 %69
  %71 = load float, float* %70, align 4
  %72 = fpext float %71 to double
  %73 = call i32 (i8*, ...) @printf(i8* getelementptr inbounds ([6 x i8], [6 x i8]* @.str.1, i64 0, i64 0), double %72)
  %74 = load i32, i32* %7, align 4
  %75 = add nsw i32 %74, 1
  store i32 %75, i32* %7, align 4
  br label %62

76:                                               ; preds = %62
  ret i32 0
}

declare dso_local i32 @__isoc99_scanf(i8*, ...) #1

declare dso_local i32 @printf(i8*, ...) #1


!llvm.module.flags = !{!0}
!llvm.ident = !{!1}

!0 = !{i32 1, !"wchar_size", i32 4}
!1 = !{!"clang version 10.0.0-4ubuntu1 "}
